Certificate:
    Data:
        Version: 3 (0x2)
        Serial Number:
            c4:68:df:2f:58:1f:6d:7f
        Signature Algorithm: sha1WithRSAEncryption
        Issuer: C=US, ST=WashitongDC, L=NewYork, O=Yale, OU=Yale, CN=Wudaoyuan/emailAddress=clzqwdy@gmail.com
        Validity
            Not Before: Jun  8 07:28:30 2010 GMT
            Not After : Jun  5 07:28:30 2020 GMT
        Subject: C=US, ST=WashitongDC, L=NewYork, O=Yale, OU=Yale, CN=Wudaoyuan/emailAddress=clzqwdy@gmail.com
        Subject Public Key Info:
            Public Key Algorithm: rsaEncryption
                Public-Key: (1024 bit)
                Modulus:
                    00:c7:61:a1:6a:09:d7:17:df:da:2d:f8:ad:f9:92:
                    b9:a8:2a:f3:6e:16:92:71:91:71:1c:d2:08:a4:27:
                    fd:42:94:95:46:be:72:64:5b:ac:c5:52:42:28:2a:
                    28:e5:df:88:a8:65:e8:bf:8e:85:51:40:7a:49:08:
                    97:7c:8c:c8:db:9e:75:f2:8e:02:f3:56:af:8d:5a:
                    a3:bf:36:a1:07:9d:f2:4a:b1:16:83:80:c5:5f:9f:
                    3d:f5:a8:37:ab:53:b5:d9:90:3b:b2:7a:5f:70:b2:
                    10:84:f7:89:ae:4d:eb:15:0e:a2:2b:89:10:c8:48:
                    f2:a2:3a:c0:43:c2:15:26:a3
                Exponent: 65537 (0x10001)
        X509v3 extensions:
            X509v3 Basic Constraints: 
                CA:TRUE
    Signature Algorithm: sha1WithRSAEncryption
        30:ac:9a:89:d9:03:18:39:f5:4f:0c:d8:93:1a:24:5a:ef:7f:
        bf:7e:93:98:42:28:3c:92:6f:aa:93:a0:cf:b4:f5:d0:ae:08:
        42:ec:d7:72:8b:17:6a:c9:2a:fd:30:57:da:3d:86:70:94:83:
        c4:aa:69:f2:e6:77:95:37:24:02:1f:d0:01:a6:97:8f:1a:cf:
        01:b3:1b:27:c7:74:cb:8b:c1:76:12:d8:ae:41:6a:0d:77:01:
        d3:6d:fc:e9:aa:aa:7e:30:4d:df:6b:3e:ed:a1:aa:3a:ad:23:
        84:4a:43:18:ca:77:a0:02:cd:55:eb:55:19:0b:6f:90:cc:eb:
        fc:d7
-----BEGIN CERTIFICATE-----
MIICojCCAgugAwIBAgIJAMRo3y9YH21/MA0GCSqGSIb3DQEBBQUAMIGJMQswCQYD
VQQGEwJVUzEUMBIGA1UECAwLV2FzaGl0b25nREMxEDAOBgNVBAcMB05ld1lvcmsx
DTALBgNVBAoMBFlhbGUxDTALBgNVBAsMBFlhbGUxEjAQBgNVBAMMCVd1ZGFveXVh
bjEgMB4GCSqGSIb3DQEJARYRY2x6cXdkeUBnbWFpbC5jb20wHhcNMTAwNjA4MDcy
ODMwWhcNMjAwNjA1MDcyODMwWjCBiTELMAkGA1UEBhMCVVMxFDASBgNVBAgMC1dh
c2hpdG9uZ0RDMRAwDgYDVQQHDAdOZXdZb3JrMQ0wCwYDVQQKDARZYWxlMQ0wCwYD
VQQLDARZYWxlMRIwEAYDVQQDDAlXdWRhb3l1YW4xIDAeBgkqhkiG9w0BCQEWEWNs
enF3ZHlAZ21haWwuY29tMIGfMA0GCSqGSIb3DQEBAQUAA4GNADCBiQKBgQDHYaFq
CdcX39ot+K35krmoKvNuFpJxkXEc0gikJ/1ClJVGvnJkW6zFUkIoKijl34ioZei/
joVRQHpJCJd8jMjbnnXyjgLzVq+NWqO/NqEHnfJKsRaDgMVfnz31qDerU7XZkDuy
el9wshCE94muTesVDqIriRDISPKiOsBDwhUmowIDAQABoxAwDjAMBgNVHRMEBTAD
AQH/MA0GCSqGSIb3DQEBBQUAA4GBADCsmonZAxg59U8M2JMaJFrvf79+k5hCKDyS
b6qToM+09dCuCELs13KLF2rJKv0wV9o9hnCUg8SqafLmd5U3JAIf0AGml48azwGz
GyfHdMuLwXYS2K5Bag13AdNt/Omqqn4wTd9rPu2hqjqtI4RKQxjKd6ACzVXrVRkL
b5DM6/zX
-----END CERTIFICATE-----
